; Function Attrs: nounwind sspstrong uwtable
define internal i64 @rb_file_lstat(i64 noundef %0) #0 {
  %2 = alloca %struct.no_gvl_stat_data, align 8
  %3 = alloca %struct.stat, align 8
  call void @llvm.lifetime.start.p0(i64 144, ptr nonnull %3) #22
  %4 = tail call i64 @rb_io_taint_check(i64 noundef %0) #22
  %5 = inttoptr i64 %4 to ptr
  %6 = getelementptr inbounds nuw i8, ptr %5, i64 16
  %7 = load ptr, ptr %6, align 8, !tbaa !33
  tail call void @rb_io_check_closed(ptr noundef %7) #22
  %8 = getelementptr inbounds nuw i8, ptr %7, i64 32
  %9 = load i64, ptr %8, align 8, !tbaa !74
  %10 = icmp eq i64 %9, 4
  br i1 %10, label %38, label %11

11:                                               ; preds = %1
  %12 = inttoptr i64 %9 to ptr
  %13 = load i64, ptr %12, align 8, !tbaa !7, !noalias !264
  %14 = and i64 %13, 8192
  %.not.i.i = icmp eq i64 %14, 0
  %15 = getelementptr inbounds nuw i8, ptr %12, i64 24
  br i1 %.not.i.i, label %RSTRING_PTR.exit, label %16

16:                                               ; preds = %11
  %.sroa.2.0.copyload.i = load ptr, ptr %15, align 8
  br label %RSTRING_PTR.exit

RSTRING_PTR.exit:                                 ; preds = %11, %16
  %.sroa.2.0.i = phi ptr [ %.sroa.2.0.copyload.i, %16 ], [ %15, %11 ]
  call void @llvm.lifetime.start.p0(i64 16, ptr nonnull %2) #22
  %17 = getelementptr inbounds nuw i8, ptr %2, i64 8
  store ptr %.sroa.2.0.i, ptr %17, align 8, !tbaa !27
  store ptr %3, ptr %2, align 8, !tbaa !43
  %18 = call ptr @rb_nogvl(ptr noundef nonnull @no_gvl_lstat, ptr noundef nonnull %2, ptr noundef nonnull inttoptr (i64 -1 to ptr), ptr noundef null, i32 noundef 4) #22
  %19 = ptrtoint ptr %18 to i64
  call void @llvm.lifetime.end.p0(i64 16, ptr nonnull %2) #22
  %20 = and i64 %19, 4294967295
  %21 = icmp eq i64 %20, 4294967295
  br i1 %21, label %22, label %26

22:                                               ; preds = %RSTRING_PTR.exit
  %23 = call ptr @rb_errno_ptr() #22
  %24 = load i32, ptr %23, align 4, !tbaa !26
  %25 = load i64, ptr %8, align 8, !tbaa !74
  call void @rb_syserr_fail_path_in(ptr noundef nonnull @__func__.rb_file_lstat, i32 noundef %24, i64 noundef %25) #24
  unreachable

26:                                               ; preds = %RSTRING_PTR.exit
  %27 = load i64, ptr @rb_cStat, align 8, !tbaa !12
  %28 = call i64 @rb_data_typed_object_zalloc(i64 noundef %27, i64 noundef 152, ptr noundef nonnull @stat_data_type) #22
  %29 = inttoptr i64 %28 to ptr
  %30 = getelementptr inbounds nuw i8, ptr %29, i64 24
  %31 = load i64, ptr %30, align 8, !tbaa !21
  %32 = and i64 %31, 2
  %.not.i.i.i = icmp eq i64 %32, 0
  %33 = getelementptr i8, ptr %29, i64 32
  br i1 %.not.i.i.i, label %34, label %rb_stat_new.exit

34:                                               ; preds = %26
  %35 = load ptr, ptr %33, align 8, !tbaa !24
  br label %rb_stat_new.exit

rb_stat_new.exit:                                 ; preds = %26, %34
  %36 = phi ptr [ %35, %34 ], [ %33, %26 ]
  call void @llvm.memcpy.p0.p0.i64(ptr noundef nonnull align 8 dereferenceable(144) %36, ptr noundef nonnull readonly align 8 dereferenceable(144) %3, i64 144, i1 false), !tbaa.struct !25
  %37 = getelementptr inbounds nuw i8, ptr %36, i64 144
  store i8 1, ptr %37, align 8, !tbaa !28
  br label %38

38:                                               ; preds = %1, %rb_stat_new.exit
  %.0 = phi i64 [ %28, %rb_stat_new.exit ], [ 4, %1 ]
  call void @llvm.lifetime.end.p0(i64 144, ptr nonnull %3) #22
  ret i64 %.0
}